target datalayout = "e-m:e-p270:32:32-p271:32:32-p272:64:64-i64:64-i128:128-f80:128-n8:16:32:64-S128"
target triple = "x86_64-pc-linux-gnu"

%"class.rocksdb::MemTableListVersion" = type { %"class.std::__cxx11::list", %"class.std::__cxx11::list", i32, i64, i32, ptr, i64 }
%"class.std::__cxx11::list" = type { %"class.std::__cxx11::_List_base" }
%"class.std::__cxx11::_List_base" = type { %"struct.std::__cxx11::_List_base<rocksdb::ReadOnlyMemTable *, std::allocator<rocksdb::ReadOnlyMemTable *>>::_List_impl" }
%"struct.std::__cxx11::_List_base<rocksdb::ReadOnlyMemTable *, std::allocator<rocksdb::ReadOnlyMemTable *>>::_List_impl" = type { %"struct.std::__detail::_List_node_header" }
%"struct.std::__detail::_List_node_header" = type { %"struct.std::__detail::_List_node_base", i64 }
%"struct.std::__detail::_List_node_base" = type { ptr, ptr }
%"struct.std::_List_const_iterator" = type { ptr }
%"struct.rocksdb::ReadOnlyMemTable::MemTableStats" = type { i64, i64 }
%"struct.std::_List_node" = type { %"struct.std::__detail::_List_node_base", %"struct.__gnu_cxx::__aligned_membuf" }
%"struct.__gnu_cxx::__aligned_membuf" = type { [8 x i8] }

; Function Attrs: mustprogress nounwind uwtable
define linkonce_odr noundef ptr @_ZNK9__gnu_cxx16__aligned_membufIPN7rocksdb16ReadOnlyMemTableEE7_M_addrEv(ptr noundef nonnull align 8 dereferenceable(8) %0) #3 comdat align 2 {
  %2 = alloca ptr, align 8
  store ptr %0, ptr %2, align 8, !tbaa !758
  %3 = load ptr, ptr %2, align 8
  %4 = getelementptr inbounds nuw %"struct.__gnu_cxx::__aligned_membuf", ptr %3, i32 0, i32 0
  ret ptr %4
}

; Function Attrs: mustprogress nounwind uwtable
define linkonce_odr noundef ptr @_ZNK9__gnu_cxx16__aligned_membufIPN7rocksdb16ReadOnlyMemTableEE6_M_ptrEv(ptr noundef nonnull align 8 dereferenceable(8) %0) #3 comdat align 2 {
  %2 = alloca ptr, align 8
  store ptr %0, ptr %2, align 8, !tbaa !758
  %3 = load ptr, ptr %2, align 8
  %4 = call noundef ptr @_ZNK9__gnu_cxx16__aligned_membufIPN7rocksdb16ReadOnlyMemTableEE7_M_addrEv(ptr noundef nonnull align 8 dereferenceable(8) %3) #4
  ret ptr %4
}

; Function Attrs: noinline noreturn nounwind uwtable
define linkonce_odr hidden void @__clang_call_terminate(ptr noundef %0) #14 comdat {
  %2 = call ptr @__cxa_begin_catch(ptr %0) #4
  call void @_ZSt9terminatev() #19
  unreachable
}

; Function Attrs: mustprogress nounwind uwtable
define linkonce_odr noundef ptr @_ZNKSt10_List_nodeIPN7rocksdb16ReadOnlyMemTableEE9_M_valptrEv(ptr noundef nonnull align 8 dereferenceable(24) %0) #3 comdat align 2 {
  %2 = alloca ptr, align 8
  store ptr %0, ptr %2, align 8, !tbaa !755
  %3 = load ptr, ptr %2, align 8
  %4 = getelementptr inbounds nuw %"struct.std::_List_node", ptr %3, i32 0, i32 1
  %5 = call noundef ptr @_ZNK9__gnu_cxx16__aligned_membufIPN7rocksdb16ReadOnlyMemTableEE6_M_ptrEv(ptr noundef nonnull align 8 dereferenceable(8) %4) #4
  ret ptr %5
}

; Function Attrs: mustprogress nounwind uwtable
define linkonce_odr void @_ZNSt20_List_const_iteratorIPN7rocksdb16ReadOnlyMemTableEEC2EPKNSt8__detail15_List_node_baseE(ptr noundef nonnull align 8 dereferenceable(8) %0, ptr noundef %1) unnamed_addr #3 comdat align 2 {
  %3 = alloca ptr, align 8
  %4 = alloca ptr, align 8
  store ptr %0, ptr %3, align 8, !tbaa !248
  store ptr %1, ptr %4, align 8, !tbaa !259
  %5 = load ptr, ptr %3, align 8
  %6 = getelementptr inbounds nuw %"struct.std::_List_const_iterator", ptr %5, i32 0, i32 0
  %7 = load ptr, ptr %4, align 8, !tbaa !259
  store ptr %7, ptr %6, align 8, !tbaa !250
  ret void
}

; Function Attrs: mustprogress nounwind uwtable
define linkonce_odr noundef nonnull align 8 dereferenceable(8) ptr @_ZNSt20_List_const_iteratorIPN7rocksdb16ReadOnlyMemTableEEppEv(ptr noundef nonnull align 8 dereferenceable(8) %0) #3 comdat align 2 {
  %2 = alloca ptr, align 8
  store ptr %0, ptr %2, align 8, !tbaa !248
  %3 = load ptr, ptr %2, align 8
  %4 = getelementptr inbounds nuw %"struct.std::_List_const_iterator", ptr %3, i32 0, i32 0
  %5 = load ptr, ptr %4, align 8, !tbaa !250
  %6 = getelementptr inbounds nuw %"struct.std::__detail::_List_node_base", ptr %5, i32 0, i32 0
  %7 = load ptr, ptr %6, align 8, !tbaa !65
  %8 = getelementptr inbounds nuw %"struct.std::_List_const_iterator", ptr %3, i32 0, i32 0
  store ptr %7, ptr %8, align 8, !tbaa !250
  ret ptr %3
}

; Function Attrs: mustprogress nounwind uwtable
define linkonce_odr noundef nonnull align 8 dereferenceable(8) ptr @_ZNKSt20_List_const_iteratorIPN7rocksdb16ReadOnlyMemTableEEdeEv(ptr noundef nonnull align 8 dereferenceable(8) %0) #3 comdat align 2 personality ptr @__gxx_personality_v0 {
  %2 = alloca ptr, align 8
  store ptr %0, ptr %2, align 8, !tbaa !248
  %3 = load ptr, ptr %2, align 8
  %4 = getelementptr inbounds nuw %"struct.std::_List_const_iterator", ptr %3, i32 0, i32 0
  %5 = load ptr, ptr %4, align 8, !tbaa !250
  %6 = invoke noundef ptr @_ZNKSt10_List_nodeIPN7rocksdb16ReadOnlyMemTableEE9_M_valptrEv(ptr noundef nonnull align 8 dereferenceable(24) %5)
          to label %7 unwind label %8

7:                                                ; preds = %1
  ret ptr %6

8:                                                ; preds = %1
  %9 = landingpad { ptr, i32 }
          catch ptr null
  %10 = extractvalue { ptr, i32 } %9, 0
  call void @__clang_call_terminate(ptr %10) #19
  unreachable
}

; Function Attrs: mustprogress nounwind uwtable
define linkonce_odr noundef zeroext i1 @_ZStneRKSt20_List_const_iteratorIPN7rocksdb16ReadOnlyMemTableEES5_(ptr noundef nonnull align 8 dereferenceable(8) %0, ptr noundef nonnull align 8 dereferenceable(8) %1) #3 comdat {
  %3 = alloca ptr, align 8
  %4 = alloca ptr, align 8
  store ptr %0, ptr %3, align 8, !tbaa !248
  store ptr %1, ptr %4, align 8, !tbaa !248
  %5 = load ptr, ptr %3, align 8, !tbaa !248
  %6 = getelementptr inbounds nuw %"struct.std::_List_const_iterator", ptr %5, i32 0, i32 0
  %7 = load ptr, ptr %6, align 8, !tbaa !250
  %8 = load ptr, ptr %4, align 8, !tbaa !248
  %9 = getelementptr inbounds nuw %"struct.std::_List_const_iterator", ptr %8, i32 0, i32 0
  %10 = load ptr, ptr %9, align 8, !tbaa !250
  %11 = icmp ne ptr %7, %10
  ret i1 %11
}

; Function Attrs: mustprogress nounwind uwtable
define linkonce_odr ptr @_ZNKSt7__cxx114listIPN7rocksdb16ReadOnlyMemTableESaIS3_EE3endEv(ptr noundef nonnull align 8 dereferenceable(24) %0) #3 comdat align 2 {
  %2 = alloca %"struct.std::_List_const_iterator", align 8
  %3 = alloca ptr, align 8
  store ptr %0, ptr %3, align 8, !tbaa !63
  %4 = load ptr, ptr %3, align 8
  %5 = getelementptr inbounds nuw %"class.std::__cxx11::_List_base", ptr %4, i32 0, i32 0
  %6 = getelementptr inbounds nuw %"struct.std::__cxx11::_List_base<rocksdb::ReadOnlyMemTable *, std::allocator<rocksdb::ReadOnlyMemTable *>>::_List_impl", ptr %5, i32 0, i32 0
  call void @_ZNSt20_List_const_iteratorIPN7rocksdb16ReadOnlyMemTableEEC2EPKNSt8__detail15_List_node_baseE(ptr noundef nonnull align 8 dereferenceable(8) %2, ptr noundef %6) #4
  %7 = getelementptr inbounds nuw %"struct.std::_List_const_iterator", ptr %2, i32 0, i32 0
  %8 = load ptr, ptr %7, align 8
  ret ptr %8
}

; Function Attrs: mustprogress nounwind uwtable
define linkonce_odr ptr @_ZNKSt7__cxx114listIPN7rocksdb16ReadOnlyMemTableESaIS3_EE5beginEv(ptr noundef nonnull align 8 dereferenceable(24) %0) #3 comdat align 2 {
  %2 = alloca %"struct.std::_List_const_iterator", align 8
  %3 = alloca ptr, align 8
  store ptr %0, ptr %3, align 8, !tbaa !63
  %4 = load ptr, ptr %3, align 8
  %5 = getelementptr inbounds nuw %"class.std::__cxx11::_List_base", ptr %4, i32 0, i32 0
  %6 = getelementptr inbounds nuw %"struct.std::__cxx11::_List_base<rocksdb::ReadOnlyMemTable *, std::allocator<rocksdb::ReadOnlyMemTable *>>::_List_impl", ptr %5, i32 0, i32 0
  %7 = getelementptr inbounds nuw %"struct.std::__detail::_List_node_base", ptr %6, i32 0, i32 0
  %8 = load ptr, ptr %7, align 8, !tbaa !65
  call void @_ZNSt20_List_const_iteratorIPN7rocksdb16ReadOnlyMemTableEEC2EPKNSt8__detail15_List_node_baseE(ptr noundef nonnull align 8 dereferenceable(8) %2, ptr noundef %8) #4
  %9 = getelementptr inbounds nuw %"struct.std::_List_const_iterator", ptr %2, i32 0, i32 0
  %10 = load ptr, ptr %9, align 8
  ret ptr %10
}

; Function Attrs: mustprogress uwtable
define { i64, i64 } @_ZNK7rocksdb19MemTableListVersion16ApproximateStatsERKNS_5SliceES3_(ptr noundef nonnull align 8 dereferenceable(88) %0, ptr noundef nonnull align 8 dereferenceable(16) %1, ptr noundef nonnull align 8 dereferenceable(16) %2) #5 align 2 {
  %4 = alloca %"struct.rocksdb::ReadOnlyMemTable::MemTableStats", align 8
  %5 = alloca ptr, align 8
  %6 = alloca ptr, align 8
  %7 = alloca ptr, align 8
  %8 = alloca ptr, align 8
  %9 = alloca %"struct.std::_List_const_iterator", align 8
  %10 = alloca %"struct.std::_List_const_iterator", align 8
  %11 = alloca ptr, align 8
  %12 = alloca %"struct.rocksdb::ReadOnlyMemTable::MemTableStats", align 8
  store ptr %0, ptr %5, align 8, !tbaa !48
  store ptr %1, ptr %6, align 8, !tbaa !252
  store ptr %2, ptr %7, align 8, !tbaa !252
  %13 = load ptr, ptr %5, align 8
  call void @llvm.memset.p0.i64(ptr align 8 %4, i8 0, i64 16, i1 false)
  call void @llvm.lifetime.start.p0(i64 8, ptr %8) #4
  %14 = getelementptr inbounds nuw %"class.rocksdb::MemTableListVersion", ptr %13, i32 0, i32 0
  store ptr %14, ptr %8, align 8, !tbaa !63
  call void @llvm.lifetime.start.p0(i64 8, ptr %9) #4
  %15 = load ptr, ptr %8, align 8, !tbaa !63
  %16 = call ptr @_ZNKSt7__cxx114listIPN7rocksdb16ReadOnlyMemTableESaIS3_EE5beginEv(ptr noundef nonnull align 8 dereferenceable(24) %15) #4
  %17 = getelementptr inbounds nuw %"struct.std::_List_const_iterator", ptr %9, i32 0, i32 0
  store ptr %16, ptr %17, align 8
  call void @llvm.lifetime.start.p0(i64 8, ptr %10) #4
  %18 = load ptr, ptr %8, align 8, !tbaa !63
  %19 = call ptr @_ZNKSt7__cxx114listIPN7rocksdb16ReadOnlyMemTableESaIS3_EE3endEv(ptr noundef nonnull align 8 dereferenceable(24) %18) #4
  %20 = getelementptr inbounds nuw %"struct.std::_List_const_iterator", ptr %10, i32 0, i32 0
  store ptr %19, ptr %20, align 8
  br label %21

21:                                               ; preds = %48, %3
  %22 = call noundef zeroext i1 @_ZStneRKSt20_List_const_iteratorIPN7rocksdb16ReadOnlyMemTableEES5_(ptr noundef nonnull align 8 dereferenceable(8) %9, ptr noundef nonnull align 8 dereferenceable(8) %10) #4
  br i1 %22, label %24, label %23

23:                                               ; preds = %21
  call void @llvm.lifetime.end.p0(i64 8, ptr %10) #4
  call void @llvm.lifetime.end.p0(i64 8, ptr %9) #4
  call void @llvm.lifetime.end.p0(i64 8, ptr %8) #4
  br label %50

24:                                               ; preds = %21
  call void @llvm.lifetime.start.p0(i64 8, ptr %11) #4
  %25 = call noundef nonnull align 8 dereferenceable(8) ptr @_ZNKSt20_List_const_iteratorIPN7rocksdb16ReadOnlyMemTableEEdeEv(ptr noundef nonnull align 8 dereferenceable(8) %9) #4
  store ptr %25, ptr %11, align 8, !tbaa !66
  call void @llvm.lifetime.start.p0(i64 16, ptr %12) #4
  %26 = load ptr, ptr %11, align 8, !tbaa !66
  %27 = load ptr, ptr %26, align 8, !tbaa !50
  %28 = load ptr, ptr %6, align 8, !tbaa !252
  %29 = load ptr, ptr %7, align 8, !tbaa !252
  %30 = load ptr, ptr %27, align 8, !tbaa !52
  %31 = getelementptr inbounds ptr, ptr %30, i64 22
  %32 = load ptr, ptr %31, align 8
  %33 = call { i64, i64 } %32(ptr noundef nonnull align 8 dereferenceable(560) %27, ptr noundef nonnull align 8 dereferenceable(16) %28, ptr noundef nonnull align 8 dereferenceable(16) %29)
  %34 = getelementptr inbounds nuw { i64, i64 }, ptr %12, i32 0, i32 0
  %35 = extractvalue { i64, i64 } %33, 0
  store i64 %35, ptr %34, align 8
  %36 = getelementptr inbounds nuw { i64, i64 }, ptr %12, i32 0, i32 1
  %37 = extractvalue { i64, i64 } %33, 1
  store i64 %37, ptr %36, align 8
  %38 = getelementptr inbounds nuw %"struct.rocksdb::ReadOnlyMemTable::MemTableStats", ptr %12, i32 0, i32 0
  %39 = load i64, ptr %38, align 8, !tbaa !253
  %40 = getelementptr inbounds nuw %"struct.rocksdb::ReadOnlyMemTable::MemTableStats", ptr %4, i32 0, i32 0
  %41 = load i64, ptr %40, align 8, !tbaa !253
  %42 = add i64 %41, %39
  store i64 %42, ptr %40, align 8, !tbaa !253
  %43 = getelementptr inbounds nuw %"struct.rocksdb::ReadOnlyMemTable::MemTableStats", ptr %12, i32 0, i32 1
  %44 = load i64, ptr %43, align 8, !tbaa !255
  %45 = getelementptr inbounds nuw %"struct.rocksdb::ReadOnlyMemTable::MemTableStats", ptr %4, i32 0, i32 1
  %46 = load i64, ptr %45, align 8, !tbaa !255
  %47 = add i64 %46, %44
  store i64 %47, ptr %45, align 8, !tbaa !255
  call void @llvm.lifetime.end.p0(i64 16, ptr %12) #4
  call void @llvm.lifetime.end.p0(i64 8, ptr %11) #4
  br label %48

48:                                               ; preds = %24
  %49 = call noundef nonnull align 8 dereferenceable(8) ptr @_ZNSt20_List_const_iteratorIPN7rocksdb16ReadOnlyMemTableEEppEv(ptr noundef nonnull align 8 dereferenceable(8) %9) #4
  br label %21

50:                                               ; preds = %23
  %51 = load { i64, i64 }, ptr %4, align 8
  ret { i64, i64 } %51
}