; Function Attrs: mustprogress uwtable
define { i64, i64 } @_ZNK7rocksdb19MemTableListVersion16ApproximateStatsERKNS_5SliceES3_(ptr noundef nonnull readonly align 8 dereferenceable(88) %0, ptr noundef nonnull align 8 dereferenceable(16) %1, ptr noundef nonnull align 8 dereferenceable(16) %2) local_unnamed_addr #4 align 2 personality ptr @__gxx_personality_v0 {
  %.sroa.010.013 = load ptr, ptr %0, align 8, !tbaa !18
  %.not14 = icmp eq ptr %.sroa.010.013, %0
  br i1 %.not14, label %._crit_edge, label %.lr.ph

._crit_edge:                                      ; preds = %.lr.ph, %3
  %.sroa.47.0.lcssa = phi i64 [ 0, %3 ], [ %13, %.lr.ph ]
  %.sroa.06.0.lcssa = phi i64 [ 0, %3 ], [ %12, %.lr.ph ]
  %.fca.0.insert = insertvalue { i64, i64 } poison, i64 %.sroa.06.0.lcssa, 0
  %.fca.1.insert = insertvalue { i64, i64 } %.fca.0.insert, i64 %.sroa.47.0.lcssa, 1
  ret { i64, i64 } %.fca.1.insert

.lr.ph:                                           ; preds = %3, %.lr.ph
  %.sroa.010.017 = phi ptr [ %.sroa.010.0, %.lr.ph ], [ %.sroa.010.013, %3 ]
  %.sroa.06.016 = phi i64 [ %12, %.lr.ph ], [ 0, %3 ]
  %.sroa.47.015 = phi i64 [ %13, %.lr.ph ], [ 0, %3 ]
  %4 = getelementptr inbounds nuw i8, ptr %.sroa.010.017, i64 16
  %5 = load ptr, ptr %4, align 8, !tbaa !21
  %6 = load ptr, ptr %5, align 8, !tbaa !27
  %7 = getelementptr inbounds nuw i8, ptr %6, i64 176
  %8 = load ptr, ptr %7, align 8
  %9 = tail call { i64, i64 } %8(ptr noundef nonnull align 8 dereferenceable(560) %5, ptr noundef nonnull align 8 dereferenceable(16) %1, ptr noundef nonnull align 8 dereferenceable(16) %2)
  %10 = extractvalue { i64, i64 } %9, 0
  %11 = extractvalue { i64, i64 } %9, 1
  %12 = add i64 %10, %.sroa.06.016
  %13 = add i64 %11, %.sroa.47.015
  %.sroa.010.0 = load ptr, ptr %.sroa.010.017, align 8, !tbaa !18
  %.not = icmp eq ptr %.sroa.010.0, %0
  br i1 %.not, label %._crit_edge, label %.lr.ph
}